target datalayout = "e-m:e-p270:32:32-p271:32:32-p272:64:64-i64:64-f80:128-n8:16:32:64-S128"
target triple = "x86_64-pc-linux-gnu"

@.str = private unnamed_addr constant [4 x i8] c"%d\0A\00", align 1
@.str.1 = private unnamed_addr constant [3 x i8] c"%d\00", align 1
@.str.2 = private unnamed_addr constant [2 x i8] c"\0A\00", align 1

; Function Attrs: noinline nounwind uwtable
define dso_local void @main() #0 {
  %1 = alloca [105 x i32], align 16
  %2 = alloca [105 x i32], align 16
  %3 = alloca [105 x i32], align 16
  %4 = alloca i32, align 4
  %5 = alloca i32, align 4
  %6 = alloca i32, align 4
  %7 = alloca i32, align 4
  %8 = alloca [105 x i8], align 16
  %9 = bitcast [105 x i32]* %1 to i8*
  call void @llvm.memset.p0i8.i64(i8* align 16 %9, i8 0, i64 420, i1 false)
  %10 = bitcast [105 x i32]* %2 to i8*
  call void @llvm.memset.p0i8.i64(i8* align 16 %10, i8 0, i64 420, i1 false)
  %11 = bitcast [105 x i32]* %3 to i8*
  call void @llvm.memset.p0i8.i64(i8* align 16 %11, i8 0, i64 420, i1 false)
  %12 = bitcast [105 x i8]* %8 to i8*
  call void @llvm.memset.p0i8.i64(i8* align 16 %12, i8 0, i64 105, i1 false)
  %13 = call i32 (i8*, ...) @__isoc99_scanf(i8* getelementptr inbounds ([4 x i8], [4 x i8]* @.str, i64 0, i64 0), i32* %7)
  store i32 1, i32* %4, align 4
  br label %14

14:                                               ; preds = %181, %0
  %15 = load i32, i32* %4, align 4
  %16 = load i32, i32* %7, align 4
  %17 = icmp sle i32 %15, %16
  br i1 %17, label %18, label %184

18:                                               ; preds = %14
  %19 = getelementptr inbounds [105 x i8], [105 x i8]* %8, i64 0, i64 0
  %20 = call i32 (i8*, ...) bitcast (i32 (...)* @gets to i32 (i8*, ...)*)(i8* %19)
  %21 = getelementptr inbounds [105 x i8], [105 x i8]* %8, i64 0, i64 0
  %22 = call i64 @strlen(i8* %21) #4
  %23 = trunc i64 %22 to i32
  store i32 %23, i32* %6, align 4
  store i32 0, i32* %5, align 4
  br label %24

24:                                               ; preds = %41, %18
  %25 = load i32, i32* %5, align 4
  %26 = load i32, i32* %6, align 4
  %27 = icmp slt i32 %25, %26
  br i1 %27, label %28, label %44

28:                                               ; preds = %24
  %29 = load i32, i32* %6, align 4
  %30 = load i32, i32* %5, align 4
  %31 = sub nsw i32 %29, %30
  %32 = sub nsw i32 %31, 1
  %33 = sext i32 %32 to i64
  %34 = getelementptr inbounds [105 x i8], [105 x i8]* %8, i64 0, i64 %33
  %35 = load i8, i8* %34, align 1
  %36 = sext i8 %35 to i32
  %37 = sub nsw i32 %36, 48
  %38 = load i32, i32* %5, align 4
  %39 = sext i32 %38 to i64
  %40 = getelementptr inbounds [105 x i32], [105 x i32]* %1, i64 0, i64 %39
  store i32 %37, i32* %40, align 4
  br label %41

41:                                               ; preds = %28
  %42 = load i32, i32* %5, align 4
  %43 = add nsw i32 %42, 1
  store i32 %43, i32* %5, align 4
  br label %24

44:                                               ; preds = %24
  %45 = load i32, i32* %6, align 4
  store i32 %45, i32* %5, align 4
  br label %46

46:                                               ; preds = %53, %44
  %47 = load i32, i32* %5, align 4
  %48 = icmp slt i32 %47, 105
  br i1 %48, label %49, label %56

49:                                               ; preds = %46
  %50 = load i32, i32* %5, align 4
  %51 = sext i32 %50 to i64
  %52 = getelementptr inbounds [105 x i32], [105 x i32]* %1, i64 0, i64 %51
  store i32 0, i32* %52, align 4
  br label %53

53:                                               ; preds = %49
  %54 = load i32, i32* %5, align 4
  %55 = add nsw i32 %54, 1
  store i32 %55, i32* %5, align 4
  br label %46

56:                                               ; preds = %46
  %57 = getelementptr inbounds [105 x i8], [105 x i8]* %8, i64 0, i64 0
  %58 = call i32 (i8*, ...) bitcast (i32 (...)* @gets to i32 (i8*, ...)*)(i8* %57)
  %59 = getelementptr inbounds [105 x i8], [105 x i8]* %8, i64 0, i64 0
  %60 = call i64 @strlen(i8* %59) #4
  %61 = trunc i64 %60 to i32
  store i32 %61, i32* %6, align 4
  store i32 0, i32* %5, align 4
  br label %62

62:                                               ; preds = %79, %56
  %63 = load i32, i32* %5, align 4
  %64 = load i32, i32* %6, align 4
  %65 = icmp slt i32 %63, %64
  br i1 %65, label %66, label %82

66:                                               ; preds = %62
  %67 = load i32, i32* %6, align 4
  %68 = load i32, i32* %5, align 4
  %69 = sub nsw i32 %67, %68
  %70 = sub nsw i32 %69, 1
  %71 = sext i32 %70 to i64
  %72 = getelementptr inbounds [105 x i8], [105 x i8]* %8, i64 0, i64 %71
  %73 = load i8, i8* %72, align 1
  %74 = sext i8 %73 to i32
  %75 = sub nsw i32 %74, 48
  %76 = load i32, i32* %5, align 4
  %77 = sext i32 %76 to i64
  %78 = getelementptr inbounds [105 x i32], [105 x i32]* %2, i64 0, i64 %77
  store i32 %75, i32* %78, align 4
  br label %79

79:                                               ; preds = %66
  %80 = load i32, i32* %5, align 4
  %81 = add nsw i32 %80, 1
  store i32 %81, i32* %5, align 4
  br label %62

82:                                               ; preds = %62
  %83 = load i32, i32* %6, align 4
  store i32 %83, i32* %5, align 4
  br label %84

84:                                               ; preds = %91, %82
  %85 = load i32, i32* %5, align 4
  %86 = icmp slt i32 %85, 105
  br i1 %86, label %87, label %94

87:                                               ; preds = %84
  %88 = load i32, i32* %5, align 4
  %89 = sext i32 %88 to i64
  %90 = getelementptr inbounds [105 x i32], [105 x i32]* %2, i64 0, i64 %89
  store i32 0, i32* %90, align 4
  br label %91

91:                                               ; preds = %87
  %92 = load i32, i32* %5, align 4
  %93 = add nsw i32 %92, 1
  store i32 %93, i32* %5, align 4
  br label %84

94:                                               ; preds = %84
  %95 = getelementptr inbounds [105 x i8], [105 x i8]* %8, i64 0, i64 0
  %96 = call i32 (i8*, ...) bitcast (i32 (...)* @gets to i32 (i8*, ...)*)(i8* %95)
  store i32 0, i32* %5, align 4
  br label %97

97:                                               ; preds = %104, %94
  %98 = load i32, i32* %5, align 4
  %99 = icmp sle i32 %98, 102
  br i1 %99, label %100, label %107

100:                                              ; preds = %97
  %101 = load i32, i32* %5, align 4
  %102 = sext i32 %101 to i64
  %103 = getelementptr inbounds [105 x i32], [105 x i32]* %3, i64 0, i64 %102
  store i32 0, i32* %103, align 4
  br label %104

104:                                              ; preds = %100
  %105 = load i32, i32* %5, align 4
  %106 = add nsw i32 %105, 1
  store i32 %106, i32* %5, align 4
  br label %97

107:                                              ; preds = %97
  store i32 0, i32* %5, align 4
  br label %108

108:                                              ; preds = %154, %107
  %109 = load i32, i32* %5, align 4
  %110 = icmp sle i32 %109, 102
  br i1 %110, label %111, label %157

111:                                              ; preds = %108
  %112 = load i32, i32* %5, align 4
  %113 = sext i32 %112 to i64
  %114 = getelementptr inbounds [105 x i32], [105 x i32]* %3, i64 0, i64 %113
  %115 = load i32, i32* %114, align 4
  %116 = load i32, i32* %5, align 4
  %117 = sext i32 %116 to i64
  %118 = getelementptr inbounds [105 x i32], [105 x i32]* %1, i64 0, i64 %117
  %119 = load i32, i32* %118, align 4
  %120 = add nsw i32 %115, %119
  %121 = load i32, i32* %5, align 4
  %122 = sext i32 %121 to i64
  %123 = getelementptr inbounds [105 x i32], [105 x i32]* %2, i64 0, i64 %122
  %124 = load i32, i32* %123, align 4
  %125 = sub nsw i32 %120, %124
  %126 = load i32, i32* %5, align 4
  %127 = sext i32 %126 to i64
  %128 = getelementptr inbounds [105 x i32], [105 x i32]* %3, i64 0, i64 %127
  store i32 %125, i32* %128, align 4
  %129 = load i32, i32* %5, align 4
  %130 = sext i32 %129 to i64
  %131 = getelementptr inbounds [105 x i32], [105 x i32]* %3, i64 0, i64 %130
  %132 = load i32, i32* %131, align 4
  %133 = icmp slt i32 %132, 0
  br i1 %133, label %134, label %153

134:                                              ; preds = %111
  %135 = load i32, i32* %5, align 4
  %136 = sext i32 %135 to i64
  %137 = getelementptr inbounds [105 x i32], [105 x i32]* %3, i64 0, i64 %136
  %138 = load i32, i32* %137, align 4
  %139 = add nsw i32 %138, 10
  %140 = load i32, i32* %5, align 4
  %141 = sext i32 %140 to i64
  %142 = getelementptr inbounds [105 x i32], [105 x i32]* %3, i64 0, i64 %141
  store i32 %139, i32* %142, align 4
  %143 = load i32, i32* %5, align 4
  %144 = add nsw i32 %143, 1
  %145 = sext i32 %144 to i64
  %146 = getelementptr inbounds [105 x i32], [105 x i32]* %3, i64 0, i64 %145
  %147 = load i32, i32* %146, align 4
  %148 = sub nsw i32 %147, 1
  %149 = load i32, i32* %5, align 4
  %150 = add nsw i32 %149, 1
  %151 = sext i32 %150 to i64
  %152 = getelementptr inbounds [105 x i32], [105 x i32]* %3, i64 0, i64 %151
  store i32 %148, i32* %152, align 4
  br label %153

153:                                              ; preds = %134, %111
  br label %154

154:                                              ; preds = %153
  %155 = load i32, i32* %5, align 4
  %156 = add nsw i32 %155, 1
  store i32 %156, i32* %5, align 4
  br label %108

157:                                              ; preds = %108
  store i32 101, i32* %5, align 4
  br label %158

158:                                              ; preds = %164, %157
  %159 = load i32, i32* %5, align 4
  %160 = sext i32 %159 to i64
  %161 = getelementptr inbounds [105 x i32], [105 x i32]* %3, i64 0, i64 %160
  %162 = load i32, i32* %161, align 4
  %163 = icmp eq i32 %162, 0
  br i1 %163, label %164, label %167

164:                                              ; preds = %158
  %165 = load i32, i32* %5, align 4
  %166 = add nsw i32 %165, -1
  store i32 %166, i32* %5, align 4
  br label %158

167:                                              ; preds = %158
  br label %168

168:                                              ; preds = %171, %167
  %169 = load i32, i32* %5, align 4
  %170 = icmp sge i32 %169, 0
  br i1 %170, label %171, label %179

171:                                              ; preds = %168
  %172 = load i32, i32* %5, align 4
  %173 = sext i32 %172 to i64
  %174 = getelementptr inbounds [105 x i32], [105 x i32]* %3, i64 0, i64 %173
  %175 = load i32, i32* %174, align 4
  %176 = call i32 (i8*, ...) @printf(i8* getelementptr inbounds ([3 x i8], [3 x i8]* @.str.1, i64 0, i64 0), i32 %175)
  %177 = load i32, i32* %5, align 4
  %178 = add nsw i32 %177, -1
  store i32 %178, i32* %5, align 4
  br label %168

179:                                              ; preds = %168
  %180 = call i32 (i8*, ...) @printf(i8* getelementptr inbounds ([2 x i8], [2 x i8]* @.str.2, i64 0, i64 0))
  br label %181

181:                                              ; preds = %179
  %182 = load i32, i32* %4, align 4
  %183 = add nsw i32 %182, 1
  store i32 %183, i32* %4, align 4
  br label %14

184:                                              ; preds = %14
  ret void
}